; Function Attrs: nounwind uwtable
define noalias nonnull ptr @l_Lean_Compiler_LCNF_Probe_head___rarg(ptr noundef %0, ptr noundef %1, ptr noundef readnone captures(none) %2, ptr noundef readnone captures(none) %3, ptr noundef readnone captures(none) %4, ptr noundef readnone captures(none) %5, ptr noundef %6) local_unnamed_addr #0 {
  %8 = tail call ptr @l_Array_toSubarray___rarg(ptr noundef %1, ptr noundef nonnull inttoptr (i64 1 to ptr), ptr noundef %0) #4
  %9 = tail call ptr @l_Array_ofSubarray___rarg(ptr noundef %8) #4
  %10 = ptrtoint ptr %8 to i64
  %11 = and i64 %10, 1
  %.not = icmp eq i64 %11, 0
  br i1 %.not, label %12, label %lean_dec.exit

12:                                               ; preds = %7
  %13 = load i32, ptr %8, align 4, !tbaa !4
  %14 = icmp sgt i32 %13, 1
  br i1 %14, label %15, label %17, !prof !9

15:                                               ; preds = %12
  %16 = add nsw i32 %13, -1
  store i32 %16, ptr %8, align 4, !tbaa !4
  br label %lean_dec.exit

17:                                               ; preds = %12
  %.not.i = icmp eq i32 %13, 0
  br i1 %.not.i, label %lean_dec.exit, label %18

18:                                               ; preds = %17
  tail call void @lean_dec_ref_cold(ptr noundef nonnull %8) #4
  br label %lean_dec.exit

lean_dec.exit:                                    ; preds = %18, %17, %15, %7
  tail call void @lean_inc_heartbeat() #4
  %19 = tail call noalias ptr @mi_malloc_small(i64 noundef 24) #4
  %20 = icmp eq ptr %19, null
  br i1 %20, label %21, label %lean_alloc_ctor.exit

21:                                               ; preds = %lean_dec.exit
  tail call void @lean_internal_panic_out_of_memory() #5
  unreachable

lean_alloc_ctor.exit:                             ; preds = %lean_dec.exit
  %22 = getelementptr inbounds nuw i8, ptr %19, i64 4
  store i32 1, ptr %19, align 4, !tbaa !4
  store i32 131096, ptr %22, align 4
  %23 = getelementptr inbounds nuw i8, ptr %19, i64 8
  store ptr %9, ptr %23, align 8, !tbaa !10
  %24 = getelementptr inbounds nuw i8, ptr %19, i64 16
  store ptr %6, ptr %24, align 8, !tbaa !10
  ret ptr %19
}